; ModuleID = '56/1486.c'
source_filename = "56/1486.c"
target datalayout = "e-m:e-p270:32:32-p271:32:32-p272:64:64-i64:64-f80:128-n8:16:32:64-S128"
target triple = "x86_64-pc-linux-gnu"

@.str = private unnamed_addr constant [3 x i8] c"%s\00", align 1

; Function Attrs: noinline nounwind uwtable
define dso_local i32 @main() #0 {
  %1 = alloca i32, align 4
  %2 = alloca [5 x i8], align 1
  %3 = alloca [5 x i8], align 1
  %4 = alloca i32, align 4
  %5 = alloca i32, align 4
  %6 = alloca i32, align 4
  store i32 0, i32* %1, align 4
  store i32 0, i32* %4, align 4
  %7 = getelementptr inbounds [5 x i8], [5 x i8]* %2, i64 0, i64 0
  %8 = call i32 (i8*, ...) bitcast (i32 (...)* @gets to i32 (i8*, ...)*)(i8* %7)
  %9 = getelementptr inbounds [5 x i8], [5 x i8]* %2, i64 0, i64 0
  %10 = call i64 @strlen(i8* %9) #3
  %11 = trunc i64 %10 to i32
  store i32 %11, i32* %4, align 4
  store i32 0, i32* %5, align 4
  %12 = load i32, i32* %4, align 4
  %13 = sub nsw i32 %12, 1
  store i32 %13, i32* %6, align 4
  br label %14

14:                                               ; preds = %29, %0
  %15 = load i32, i32* %5, align 4
  %16 = load i32, i32* %4, align 4
  %17 = icmp slt i32 %15, %16
  %18 = zext i1 %17 to i32
  %19 = load i32, i32* %6, align 4
  %20 = icmp sge i32 %19, 0
  br i1 %20, label %21, label %34

21:                                               ; preds = %14
  %22 = load i32, i32* %5, align 4
  %23 = sext i32 %22 to i64
  %24 = getelementptr inbounds [5 x i8], [5 x i8]* %2, i64 0, i64 %23
  %25 = load i8, i8* %24, align 1
  %26 = load i32, i32* %6, align 4
  %27 = sext i32 %26 to i64
  %28 = getelementptr inbounds [5 x i8], [5 x i8]* %3, i64 0, i64 %27
  store i8 %25, i8* %28, align 1
  br label %29

29:                                               ; preds = %21
  %30 = load i32, i32* %5, align 4
  %31 = add nsw i32 %30, 1
  store i32 %31, i32* %5, align 4
  %32 = load i32, i32* %6, align 4
  %33 = add nsw i32 %32, -1
  store i32 %33, i32* %6, align 4
  br label %14

34:                                               ; preds = %14
  %35 = load i32, i32* %4, align 4
  %36 = sext i32 %35 to i64
  %37 = getelementptr inbounds [5 x i8], [5 x i8]* %3, i64 0, i64 %36
  store i8 0, i8* %37, align 1
  %38 = getelementptr inbounds [5 x i8], [5 x i8]* %3, i64 0, i64 0
  %39 = call i32 (i8*, ...) @printf(i8* getelementptr inbounds ([3 x i8], [3 x i8]* @.str, i64 0, i64 0), i8* %38)
  ret i32 0
}

declare dso_local i32 @gets(...) #1

; Function Attrs: nounwind readonly
declare dso_local i64 @strlen(i8*) #2

declare dso_local i32 @printf(i8*, ...) #1


!llvm.module.flags = !{!0}
!llvm.ident = !{!1}

!0 = !{i32 1, !"wchar_size", i32 4}
!1 = !{!"clang version 10.0.0-4ubuntu1 "}
